target datalayout = "e-m:e-p270:32:32-p271:32:32-p272:64:64-i64:64-i128:128-f80:128-n8:16:32:64-S128"
target triple = "x86_64-pc-linux-gnu"

%struct.SDL_Haptic = type { i32, ptr, ptr, i32, i32, i32, i32, ptr, i32, i32, %union.SDL_HapticEffect, ptr }
%union.SDL_HapticEffect = type { %struct.SDL_HapticCustom, [16 x i8] }
%struct.SDL_HapticCustom = type { i16, %struct.SDL_HapticDirection, i32, i16, i16, i16, i8, i16, i16, ptr, i16, i16, i16, i16 }
%struct.SDL_HapticDirection = type { i8, [3 x i32] }

@.str = private unnamed_addr constant [26 x i8] c"Parameter '%s' is invalid\00", align 1
@.str.1 = private unnamed_addr constant [7 x i8] c"haptic\00", align 1

; Function Attrs: nounwind uwtable
define hidden zeroext i1 @SDL_ResumeHaptic_REAL(ptr noundef %0) #0 {
  %2 = alloca i1, align 1
  %3 = alloca ptr, align 8
  store ptr %0, ptr %3, align 8
  %4 = load ptr, ptr %3, align 8
  %5 = call zeroext i1 @SDL_ObjectValid(ptr noundef %4, i32 noundef 6)
  br i1 %5, label %8, label %6

6:                                                ; preds = %1
  %7 = call zeroext i1 (ptr, ...) @SDL_SetError_REAL(ptr noundef @.str, ptr noundef @.str.1)
  store i1 false, ptr %2, align 1
  br label %24

8:                                                ; preds = %1
  %9 = load ptr, ptr %3, align 8
  %10 = getelementptr inbounds nuw %struct.SDL_Haptic, ptr %9, i32 0, i32 5
  %11 = load i32, ptr %10, align 8
  %12 = and i32 %11, 524288
  %13 = icmp ne i32 %12, 0
  br i1 %13, label %15, label %14

14:                                               ; preds = %8
  store i1 true, ptr %2, align 1
  br label %24

15:                                               ; preds = %8
  %16 = load ptr, ptr %3, align 8
  %17 = call zeroext i1 @SDL_HIDAPI_HapticIsHidapi(ptr noundef %16)
  br i1 %17, label %18, label %21

18:                                               ; preds = %15
  %19 = load ptr, ptr %3, align 8
  %20 = call zeroext i1 @SDL_HIDAPI_HapticResume(ptr noundef %19)
  store i1 %20, ptr %2, align 1
  br label %24

21:                                               ; preds = %15
  %22 = load ptr, ptr %3, align 8
  %23 = call zeroext i1 @SDL_SYS_HapticResume(ptr noundef %22)
  store i1 %23, ptr %2, align 1
  br label %24

24:                                               ; preds = %21, %18, %14, %6
  %25 = load i1, ptr %2, align 1
  ret i1 %25
}