; Function Attrs: nounwind uwtable
define hidden zeroext i1 @SDL_ResumeHaptic_REAL(ptr noundef %0) local_unnamed_addr #0 {
  %2 = tail call zeroext i1 @SDL_ObjectValid(ptr noundef %0, i32 noundef 6) #9
  br i1 %2, label %5, label %3

3:                                                ; preds = %1
  %4 = tail call zeroext i1 (ptr, ...) @SDL_SetError_REAL(ptr noundef nonnull @.str, ptr noundef nonnull @.str.1) #9
  br label %15

5:                                                ; preds = %1
  %6 = getelementptr inbounds nuw i8, ptr %0, i64 32
  %7 = load i32, ptr %6, align 8
  %8 = and i32 %7, 524288
  %.not = icmp eq i32 %8, 0
  br i1 %.not, label %15, label %9

9:                                                ; preds = %5
  %10 = tail call zeroext i1 @SDL_HIDAPI_HapticIsHidapi(ptr noundef nonnull %0) #9
  br i1 %10, label %11, label %13

11:                                               ; preds = %9
  %12 = tail call zeroext i1 @SDL_HIDAPI_HapticResume(ptr noundef nonnull %0) #9
  br label %15

13:                                               ; preds = %9
  %14 = tail call zeroext i1 @SDL_SYS_HapticResume(ptr noundef nonnull %0) #9
  br label %15

15:                                               ; preds = %5, %13, %11, %3
  %.0 = phi i1 [ %12, %11 ], [ %14, %13 ], [ false, %3 ], [ true, %5 ]
  ret i1 %.0
}